target datalayout = "e-m:e-p270:32:32-p271:32:32-p272:64:64-i64:64-i128:128-f80:128-n8:16:32:64-S128"
target triple = "x86_64-pc-linux-gnu"

%struct.JsonLexContext = type { ptr, i64, i32, ptr, ptr, ptr, i8, i32, i32, i32, i32, ptr, ptr, ptr, i8, ptr, ptr }
%struct.PopulateRecordsetState = type { ptr, ptr, ptr, ptr, ptr, i32, ptr, ptr, ptr }

@.str.2 = private unnamed_addr constant [12 x i8] c"jsonfuncs.c\00", align 1
@.str.83 = private unnamed_addr constant [43 x i8] c"argument of %s must be an array of objects\00", align 1
@__func__.populate_recordset_array_element_start = private unnamed_addr constant [39 x i8] c"populate_recordset_array_element_start\00", align 1

; Function Attrs: nounwind uwtable
define internal i32 @populate_recordset_array_element_start(ptr noundef %0, i1 noundef zeroext %1) #0 {
  %3 = alloca ptr, align 8
  %4 = alloca i8, align 1
  %5 = alloca ptr, align 8
  store ptr %0, ptr %3, align 8
  %6 = zext i1 %1 to i8
  store i8 %6, ptr %4, align 1
  call void @llvm.lifetime.start.p0(i64 8, ptr %5) #10
  %7 = load ptr, ptr %3, align 8
  store ptr %7, ptr %5, align 8
  %8 = load ptr, ptr %5, align 8
  %9 = getelementptr inbounds nuw %struct.PopulateRecordsetState, ptr %8, i32 0, i32 0
  %10 = load ptr, ptr %9, align 8
  %11 = getelementptr inbounds nuw %struct.JsonLexContext, ptr %10, i32 0, i32 8
  %12 = load i32, ptr %11, align 8
  %13 = icmp eq i32 %12, 1
  br i1 %13, label %14, label %36

14:                                               ; preds = %2
  %15 = load ptr, ptr %5, align 8
  %16 = getelementptr inbounds nuw %struct.PopulateRecordsetState, ptr %15, i32 0, i32 0
  %17 = load ptr, ptr %16, align 8
  %18 = getelementptr inbounds nuw %struct.JsonLexContext, ptr %17, i32 0, i32 7
  %19 = load i32, ptr %18, align 4
  %20 = icmp ne i32 %19, 3
  br i1 %20, label %21, label %36

21:                                               ; preds = %14
  br label %22

22:                                               ; preds = %21
  br i1 true, label %23, label %25

23:                                               ; preds = %22
  %24 = call zeroext i1 @errstart_cold(i32 noundef 21, ptr noundef null) #11
  br i1 %24, label %27, label %33

25:                                               ; preds = %22
  %26 = call zeroext i1 @errstart(i32 noundef 21, ptr noundef null)
  br i1 %26, label %27, label %33

27:                                               ; preds = %25, %23
  %28 = call i32 @errcode(i32 noundef 50856066)
  %29 = load ptr, ptr %5, align 8
  %30 = getelementptr inbounds nuw %struct.PopulateRecordsetState, ptr %29, i32 0, i32 1
  %31 = load ptr, ptr %30, align 8
  %32 = call i32 (ptr, ...) @errmsg(ptr noundef @.str.83, ptr noundef %31)
  call void @errfinish(ptr noundef @.str.2, i32 noundef 4276, ptr noundef @__func__.populate_recordset_array_element_start)
  br label %33

33:                                               ; preds = %27, %25, %23
  unreachable

34:                                               ; No predecessors!
  br label %35

35:                                               ; preds = %34
  br label %36

36:                                               ; preds = %35, %14, %2
  call void @llvm.lifetime.end.p0(i64 8, ptr %5) #10
  ret i32 0
}