; Function Attrs: nounwind uwtable
define internal noundef i32 @populate_recordset_array_element_start(ptr noundef readonly captures(none) %0, i1 zeroext %1) #0 {
  %3 = load ptr, ptr %0, align 8
  %4 = getelementptr inbounds nuw i8, ptr %3, i64 56
  %5 = load i32, ptr %4, align 8
  %6 = icmp eq i32 %5, 1
  br i1 %6, label %7, label %16

7:                                                ; preds = %2
  %8 = getelementptr inbounds nuw i8, ptr %3, i64 52
  %9 = load i32, ptr %8, align 4
  %.not = icmp eq i32 %9, 3
  br i1 %.not, label %16, label %10

10:                                               ; preds = %7
  %11 = tail call zeroext i1 @errstart_cold(i32 noundef 21, ptr noundef null) #16
  tail call void @llvm.assume(i1 %11)
  %12 = tail call i32 @errcode(i32 noundef 50856066) #15
  %13 = getelementptr inbounds nuw i8, ptr %0, i64 8
  %14 = load ptr, ptr %13, align 8
  %15 = tail call i32 (ptr, ...) @errmsg(ptr noundef nonnull @.str.83, ptr noundef %14) #15
  tail call void @errfinish(ptr noundef nonnull @.str.2, i32 noundef 4276, ptr noundef nonnull @__func__.populate_recordset_array_element_start) #15
  unreachable

16:                                               ; preds = %7, %2
  ret i32 0
}